; ModuleID = 'source-C-CXX/59/909.c'
source_filename = "source-C-CXX/59/909.c"
target datalayout = "e-m:e-p270:32:32-p271:32:32-p272:64:64-i64:64-f80:128-n8:16:32:64-S128"
target triple = "x86_64-pc-linux-gnu"

@.str = private unnamed_addr constant [3 x i8] c"%d\00", align 1
@.str.1 = private unnamed_addr constant [6 x i8] c"empty\00", align 1
@.str.2 = private unnamed_addr constant [7 x i8] c"%d %d\0A\00", align 1

; Function Attrs: nofree nounwind sspstrong uwtable
define dso_local i32 @main() local_unnamed_addr #0 {
  %1 = alloca i32, align 4
  %2 = alloca [10000 x i32], align 16
  %3 = bitcast i32* %1 to i8*
  call void @llvm.lifetime.start.p0i8(i64 4, i8* nonnull %3) #4
  %4 = bitcast [10000 x i32]* %2 to i8*
  call void @llvm.lifetime.start.p0i8(i64 40000, i8* nonnull %4) #4
  %5 = call i32 (i8*, ...) @__isoc99_scanf(i8* getelementptr inbounds ([3 x i8], [3 x i8]* @.str, i64 0, i64 0), i32* nonnull %1)
  %6 = load i32, i32* %1, align 4, !tbaa !5
  %7 = icmp slt i32 %6, 3
  br i1 %7, label %49, label %8

8:                                                ; preds = %0, %22
  %9 = phi i32 [ %23, %22 ], [ 0, %0 ]
  %10 = phi i32 [ %24, %22 ], [ 3, %0 ]
  br label %13

11:                                               ; preds = %13
  %12 = icmp eq i32 %17, %10
  br i1 %12, label %18, label %13, !llvm.loop !9

13:                                               ; preds = %8, %11
  %14 = phi i32 [ %17, %11 ], [ 2, %8 ]
  %15 = urem i32 %10, %14
  %16 = icmp eq i32 %15, 0
  %17 = add nuw nsw i32 %14, 1
  br i1 %16, label %22, label %11

18:                                               ; preds = %11
  %19 = sext i32 %9 to i64
  %20 = getelementptr inbounds [10000 x i32], [10000 x i32]* %2, i64 0, i64 %19
  store i32 %10, i32* %20, align 4, !tbaa !5
  %21 = add nsw i32 %9, 1
  br label %22

22:                                               ; preds = %13, %18
  %23 = phi i32 [ %21, %18 ], [ %9, %13 ]
  %24 = add nuw i32 %10, 1
  %25 = icmp eq i32 %10, %6
  br i1 %25, label %26, label %8, !llvm.loop !11

26:                                               ; preds = %22
  %27 = icmp eq i32 %23, 1
  br i1 %27, label %35, label %28

28:                                               ; preds = %26
  %29 = icmp sgt i32 %23, 1
  br i1 %29, label %30, label %49

30:                                               ; preds = %28
  %31 = add nsw i32 %23, -1
  %32 = zext i32 %31 to i64
  %33 = getelementptr inbounds [10000 x i32], [10000 x i32]* %2, i64 0, i64 0
  %34 = load i32, i32* %33, align 16, !tbaa !5
  br label %37

35:                                               ; preds = %26
  %36 = call i32 (i8*, ...) @printf(i8* nonnull dereferenceable(1) getelementptr inbounds ([6 x i8], [6 x i8]* @.str.1, i64 0, i64 0))
  br label %49

37:                                               ; preds = %30, %47
  %38 = phi i32 [ %34, %30 ], [ %42, %47 ]
  %39 = phi i64 [ 0, %30 ], [ %40, %47 ]
  %40 = add nuw nsw i64 %39, 1
  %41 = getelementptr inbounds [10000 x i32], [10000 x i32]* %2, i64 0, i64 %40
  %42 = load i32, i32* %41, align 4, !tbaa !5
  %43 = sub nsw i32 %42, %38
  %44 = icmp eq i32 %43, 2
  br i1 %44, label %45, label %47

45:                                               ; preds = %37
  %46 = call i32 (i8*, ...) @printf(i8* nonnull dereferenceable(1) getelementptr inbounds ([7 x i8], [7 x i8]* @.str.2, i64 0, i64 0), i32 %38, i32 %42)
  br label %47

47:                                               ; preds = %37, %45
  %48 = icmp eq i64 %40, %32
  br i1 %48, label %49, label %37, !llvm.loop !12

49:                                               ; preds = %47, %0, %28, %35
  call void @llvm.lifetime.end.p0i8(i64 40000, i8* nonnull %4) #4
  call void @llvm.lifetime.end.p0i8(i64 4, i8* nonnull %3) #4
  ret i32 0
}

; Function Attrs: argmemonly mustprogress nofree nosync nounwind willreturn
declare void @llvm.lifetime.start.p0i8(i64 immarg, i8* nocapture) #1

; Function Attrs: nofree nounwind
declare noundef i32 @__isoc99_scanf(i8* nocapture noundef readonly, ...) local_unnamed_addr #2

; Function Attrs: nofree norecurse nosync nounwind readnone sspstrong uwtable
define dso_local i32 @sushu(i32 %0) local_unnamed_addr #3 {
  %2 = icmp sgt i32 %0, 2
  br i1 %2, label %5, label %10

3:                                                ; preds = %5
  %4 = icmp eq i32 %9, %0
  br i1 %4, label %10, label %5, !llvm.loop !9

5:                                                ; preds = %1, %3
  %6 = phi i32 [ %9, %3 ], [ 2, %1 ]
  %7 = srem i32 %0, %6
  %8 = icmp eq i32 %7, 0
  %9 = add nuw nsw i32 %6, 1
  br i1 %8, label %10, label %3

10:                                               ; preds = %5, %3, %1
  %11 = phi i32 [ 1, %1 ], [ 1, %3 ], [ 0, %5 ]
  ret i32 %11
}

; Function Attrs: nofree nounwind
declare noundef i32 @printf(i8* nocapture noundef readonly, ...) local_unnamed_addr #2

; Function Attrs: argmemonly mustprogress nofree nosync nounwind willreturn
declare void @llvm.lifetime.end.p0i8(i64 immarg, i8* nocapture) #1


!llvm.module.flags = !{!0, !1, !2, !3}
!llvm.ident = !{!4}

!0 = !{i32 1, !"wchar_size", i32 4}
!1 = !{i32 7, !"PIC Level", i32 2}
!2 = !{i32 7, !"PIE Level", i32 2}
!3 = !{i32 7, !"uwtable", i32 1}
!4 = !{!"clang version 13.0.0"}
!5 = !{!6, !6, i64 0}
!6 = !{!"int", !7, i64 0}
!7 = !{!"omnipotent char", !8, i64 0}
!8 = !{!"Simple C/C++ TBAA"}
!9 = distinct !{!9, !10}
!10 = !{!"llvm.loop.mustprogress"}
!11 = distinct !{!11, !10}
!12 = distinct !{!12, !10}
